target datalayout = "e-m:e-p270:32:32-p271:32:32-p272:64:64-i64:64-i128:128-f80:128-n8:16:32:64-S128"
target triple = "x86_64-pc-linux-gnu"

%struct.UpgradeTaskReport = type { ptr, [1024 x i8] }
%struct.DbInfo = type { i32, ptr, [1024 x i8], %struct.RelInfoArr, %struct.LogicalSlotInfoArr }
%struct.RelInfoArr = type { ptr, i32 }
%struct.LogicalSlotInfoArr = type { i32, ptr }

@.str.23 = private unnamed_addr constant [2 x i8] c"w\00", align 1
@.str.24 = private unnamed_addr constant [29 x i8] c"could not open file \22%s\22: %m\00", align 1
@.str.83 = private unnamed_addr constant [17 x i8] c"In database: %s\0A\00", align 1
@.str.126 = private unnamed_addr constant [7 x i8] c"oproid\00", align 1
@.str.127 = private unnamed_addr constant [7 x i8] c"oprnsp\00", align 1
@.str.128 = private unnamed_addr constant [8 x i8] c"oprname\00", align 1
@.str.129 = private unnamed_addr constant [7 x i8] c"typnsp\00", align 1
@.str.130 = private unnamed_addr constant [8 x i8] c"typname\00", align 1
@.str.131 = private unnamed_addr constant [32 x i8] c"  (oid=%s) %s.%s (%s.%s, NONE)\0A\00", align 1

; Function Attrs: nounwind uwtable
define internal void @process_user_defined_postfix_ops(ptr noundef %0, ptr noundef %1, ptr noundef %2) #0 {
  %4 = alloca ptr, align 8
  %5 = alloca ptr, align 8
  %6 = alloca ptr, align 8
  %7 = alloca ptr, align 8
  %8 = alloca i32, align 4
  %9 = alloca i32, align 4
  %10 = alloca i32, align 4
  %11 = alloca i32, align 4
  %12 = alloca i32, align 4
  %13 = alloca i32, align 4
  %14 = alloca i32, align 4
  %15 = alloca i32, align 4
  store ptr %0, ptr %4, align 8
  store ptr %1, ptr %5, align 8
  store ptr %2, ptr %6, align 8
  call void @llvm.lifetime.start.p0(i64 8, ptr %7) #9
  %16 = load ptr, ptr %6, align 8
  store ptr %16, ptr %7, align 8
  call void @llvm.lifetime.start.p0(i64 4, ptr %8) #9
  %17 = load ptr, ptr %5, align 8
  %18 = call i32 @PQntuples(ptr noundef %17)
  store i32 %18, ptr %8, align 4
  call void @llvm.lifetime.start.p0(i64 4, ptr %9) #9
  %19 = load ptr, ptr %5, align 8
  %20 = call i32 @PQfnumber(ptr noundef %19, ptr noundef @.str.126)
  store i32 %20, ptr %9, align 4
  call void @llvm.lifetime.start.p0(i64 4, ptr %10) #9
  %21 = load ptr, ptr %5, align 8
  %22 = call i32 @PQfnumber(ptr noundef %21, ptr noundef @.str.127)
  store i32 %22, ptr %10, align 4
  call void @llvm.lifetime.start.p0(i64 4, ptr %11) #9
  %23 = load ptr, ptr %5, align 8
  %24 = call i32 @PQfnumber(ptr noundef %23, ptr noundef @.str.128)
  store i32 %24, ptr %11, align 4
  call void @llvm.lifetime.start.p0(i64 4, ptr %12) #9
  %25 = load ptr, ptr %5, align 8
  %26 = call i32 @PQfnumber(ptr noundef %25, ptr noundef @.str.129)
  store i32 %26, ptr %12, align 4
  call void @llvm.lifetime.start.p0(i64 4, ptr %13) #9
  %27 = load ptr, ptr %5, align 8
  %28 = call i32 @PQfnumber(ptr noundef %27, ptr noundef @.str.130)
  store i32 %28, ptr %13, align 4
  br label %29

29:                                               ; preds = %3
  br label %30

30:                                               ; preds = %29
  br label %31

31:                                               ; preds = %30
  %32 = load i32, ptr %8, align 4
  %33 = icmp eq i32 %32, 0
  br i1 %33, label %34, label %35

34:                                               ; preds = %31
  store i32 1, ptr %14, align 4
  br label %94

35:                                               ; preds = %31
  %36 = load ptr, ptr %7, align 8
  %37 = getelementptr inbounds nuw %struct.UpgradeTaskReport, ptr %36, i32 0, i32 0
  %38 = load ptr, ptr %37, align 8
  %39 = icmp eq ptr %38, null
  br i1 %39, label %40, label %52

40:                                               ; preds = %35
  %41 = load ptr, ptr %7, align 8
  %42 = getelementptr inbounds nuw %struct.UpgradeTaskReport, ptr %41, i32 0, i32 1
  %43 = getelementptr inbounds [1024 x i8], ptr %42, i64 0, i64 0
  %44 = call noalias ptr @fopen(ptr noundef %43, ptr noundef @.str.23)
  %45 = load ptr, ptr %7, align 8
  %46 = getelementptr inbounds nuw %struct.UpgradeTaskReport, ptr %45, i32 0, i32 0
  store ptr %44, ptr %46, align 8
  %47 = icmp eq ptr %44, null
  br i1 %47, label %48, label %52

48:                                               ; preds = %40
  %49 = load ptr, ptr %7, align 8
  %50 = getelementptr inbounds nuw %struct.UpgradeTaskReport, ptr %49, i32 0, i32 1
  %51 = getelementptr inbounds [1024 x i8], ptr %50, i64 0, i64 0
  call void (ptr, ...) @pg_fatal(ptr noundef @.str.24, ptr noundef %51) #11
  unreachable

52:                                               ; preds = %40, %35
  %53 = load ptr, ptr %7, align 8
  %54 = getelementptr inbounds nuw %struct.UpgradeTaskReport, ptr %53, i32 0, i32 0
  %55 = load ptr, ptr %54, align 8
  %56 = load ptr, ptr %4, align 8
  %57 = getelementptr inbounds nuw %struct.DbInfo, ptr %56, i32 0, i32 1
  %58 = load ptr, ptr %57, align 8
  %59 = call i32 (ptr, ptr, ...) @pg_fprintf(ptr noundef %55, ptr noundef @.str.83, ptr noundef %58)
  call void @llvm.lifetime.start.p0(i64 4, ptr %15) #9
  store i32 0, ptr %15, align 4
  br label %60

60:                                               ; preds = %90, %52
  %61 = load i32, ptr %15, align 4
  %62 = load i32, ptr %8, align 4
  %63 = icmp slt i32 %61, %62
  br i1 %63, label %65, label %64

64:                                               ; preds = %60
  store i32 4, ptr %14, align 4
  call void @llvm.lifetime.end.p0(i64 4, ptr %15) #9
  br label %93

65:                                               ; preds = %60
  %66 = load ptr, ptr %7, align 8
  %67 = getelementptr inbounds nuw %struct.UpgradeTaskReport, ptr %66, i32 0, i32 0
  %68 = load ptr, ptr %67, align 8
  %69 = load ptr, ptr %5, align 8
  %70 = load i32, ptr %15, align 4
  %71 = load i32, ptr %9, align 4
  %72 = call ptr @PQgetvalue(ptr noundef %69, i32 noundef %70, i32 noundef %71)
  %73 = load ptr, ptr %5, align 8
  %74 = load i32, ptr %15, align 4
  %75 = load i32, ptr %10, align 4
  %76 = call ptr @PQgetvalue(ptr noundef %73, i32 noundef %74, i32 noundef %75)
  %77 = load ptr, ptr %5, align 8
  %78 = load i32, ptr %15, align 4
  %79 = load i32, ptr %11, align 4
  %80 = call ptr @PQgetvalue(ptr noundef %77, i32 noundef %78, i32 noundef %79)
  %81 = load ptr, ptr %5, align 8
  %82 = load i32, ptr %15, align 4
  %83 = load i32, ptr %12, align 4
  %84 = call ptr @PQgetvalue(ptr noundef %81, i32 noundef %82, i32 noundef %83)
  %85 = load ptr, ptr %5, align 8
  %86 = load i32, ptr %15, align 4
  %87 = load i32, ptr %13, align 4
  %88 = call ptr @PQgetvalue(ptr noundef %85, i32 noundef %86, i32 noundef %87)
  %89 = call i32 (ptr, ptr, ...) @pg_fprintf(ptr noundef %68, ptr noundef @.str.131, ptr noundef %72, ptr noundef %76, ptr noundef %80, ptr noundef %84, ptr noundef %88)
  br label %90

90:                                               ; preds = %65
  %91 = load i32, ptr %15, align 4
  %92 = add i32 %91, 1
  store i32 %92, ptr %15, align 4
  br label %60, !llvm.loop !23

93:                                               ; preds = %64
  store i32 0, ptr %14, align 4
  br label %94

94:                                               ; preds = %93, %34
  call void @llvm.lifetime.end.p0(i64 4, ptr %13) #9
  call void @llvm.lifetime.end.p0(i64 4, ptr %12) #9
  call void @llvm.lifetime.end.p0(i64 4, ptr %11) #9
  call void @llvm.lifetime.end.p0(i64 4, ptr %10) #9
  call void @llvm.lifetime.end.p0(i64 4, ptr %9) #9
  call void @llvm.lifetime.end.p0(i64 4, ptr %8) #9
  call void @llvm.lifetime.end.p0(i64 8, ptr %7) #9
  %95 = load i32, ptr %14, align 4
  switch i32 %95, label %97 [
    i32 0, label %96
    i32 1, label %96
  ]

96:                                               ; preds = %94, %94
  ret void

97:                                               ; preds = %94
  unreachable
}