; Function Attrs: nounwind uwtable
define internal void @process_user_defined_postfix_ops(ptr noundef readonly captures(none) %0, ptr noundef %1, ptr noundef %2) #0 {
  %4 = tail call i32 @PQntuples(ptr noundef %1) #10
  %5 = tail call i32 @PQfnumber(ptr noundef %1, ptr noundef nonnull @.str.126) #10
  %6 = tail call i32 @PQfnumber(ptr noundef %1, ptr noundef nonnull @.str.127) #10
  %7 = tail call i32 @PQfnumber(ptr noundef %1, ptr noundef nonnull @.str.128) #10
  %8 = tail call i32 @PQfnumber(ptr noundef %1, ptr noundef nonnull @.str.129) #10
  %9 = tail call i32 @PQfnumber(ptr noundef %1, ptr noundef nonnull @.str.130) #10
  %10 = icmp eq i32 %4, 0
  br i1 %10, label %.loopexit, label %11

11:                                               ; preds = %3
  %12 = load ptr, ptr %2, align 8
  %13 = icmp eq ptr %12, null
  br i1 %13, label %14, label %19

14:                                               ; preds = %11
  %15 = getelementptr inbounds nuw i8, ptr %2, i64 8
  %16 = tail call noalias ptr @fopen(ptr noundef nonnull %15, ptr noundef nonnull @.str.23)
  store ptr %16, ptr %2, align 8
  %17 = icmp eq ptr %16, null
  br i1 %17, label %18, label %19

18:                                               ; preds = %14
  tail call void (ptr, ...) @pg_fatal(ptr noundef nonnull @.str.24, ptr noundef nonnull %15) #12
  unreachable

19:                                               ; preds = %14, %11
  %20 = phi ptr [ %16, %14 ], [ %12, %11 ]
  %21 = getelementptr inbounds nuw i8, ptr %0, i64 8
  %22 = load ptr, ptr %21, align 8
  %23 = tail call i32 (ptr, ptr, ...) @pg_fprintf(ptr noundef nonnull %20, ptr noundef nonnull @.str.83, ptr noundef %22) #10
  %24 = icmp sgt i32 %4, 0
  br i1 %24, label %.lr.ph, label %.loopexit

.lr.ph:                                           ; preds = %19, %.lr.ph
  %.033 = phi i32 [ %32, %.lr.ph ], [ 0, %19 ]
  %25 = load ptr, ptr %2, align 8
  %26 = tail call ptr @PQgetvalue(ptr noundef %1, i32 noundef %.033, i32 noundef %5) #10
  %27 = tail call ptr @PQgetvalue(ptr noundef %1, i32 noundef %.033, i32 noundef %6) #10
  %28 = tail call ptr @PQgetvalue(ptr noundef %1, i32 noundef %.033, i32 noundef %7) #10
  %29 = tail call ptr @PQgetvalue(ptr noundef %1, i32 noundef %.033, i32 noundef %8) #10
  %30 = tail call ptr @PQgetvalue(ptr noundef %1, i32 noundef %.033, i32 noundef %9) #10
  %31 = tail call i32 (ptr, ptr, ...) @pg_fprintf(ptr noundef %25, ptr noundef nonnull @.str.131, ptr noundef %26, ptr noundef %27, ptr noundef %28, ptr noundef %29, ptr noundef %30) #10
  %32 = add nuw nsw i32 %.033, 1
  %exitcond.not = icmp eq i32 %32, %4
  br i1 %exitcond.not, label %.loopexit, label %.lr.ph, !llvm.loop !23

.loopexit:                                        ; preds = %.lr.ph, %19, %3
  ret void
}